target datalayout = "e-m:e-p270:32:32-p271:32:32-p272:64:64-i64:64-i128:128-f80:128-n8:16:32:64-S128"
target triple = "x86_64-pc-linux-gnu"

%"struct.Imf_3_4::TiledOutputFile::Data" = type <{ %"class.Imf_3_4::Header", i32, i8, [3 x i8], %"class.Imf_3_4::TileDescription", %"class.Imf_3_4::FrameBuffer", i64, i32, i32, i32, i32, i32, i32, i32, [4 x i8], ptr, ptr, %"class.Imf_3_4::TileOffsets", i32, [4 x i8], %"class.std::vector.11", i64, %"class.std::vector.16", i64, i64, %"class.std::map.21", %"struct.Imf_3_4::(anonymous namespace)::TileCoord", i32, [4 x i8] }>
%"class.Imf_3_4::Header" = type <{ %"class.std::map", i8, [7 x i8] }>
%"class.std::map" = type { %"class.std::_Rb_tree" }
%"class.std::_Rb_tree" = type { %"struct.std::_Rb_tree<Imf_3_4::Name, std::pair<const Imf_3_4::Name, Imf_3_4::Attribute *>, std::_Select1st<std::pair<const Imf_3_4::Name, Imf_3_4::Attribute *>>, std::less<Imf_3_4::Name>>::_Rb_tree_impl" }
%"struct.std::_Rb_tree<Imf_3_4::Name, std::pair<const Imf_3_4::Name, Imf_3_4::Attribute *>, std::_Select1st<std::pair<const Imf_3_4::Name, Imf_3_4::Attribute *>>, std::less<Imf_3_4::Name>>::_Rb_tree_impl" = type { [8 x i8], %"struct.std::_Rb_tree_header" }
%"struct.std::_Rb_tree_header" = type { %"struct.std::_Rb_tree_node_base", i64 }
%"struct.std::_Rb_tree_node_base" = type { i32, ptr, ptr, ptr }
%"class.Imf_3_4::TileDescription" = type { i32, i32, i32, i32 }
%"class.Imf_3_4::FrameBuffer" = type { %"class.std::map.3" }
%"class.std::map.3" = type { %"class.std::_Rb_tree.4" }
%"class.std::_Rb_tree.4" = type { %"struct.std::_Rb_tree<Imf_3_4::Name, std::pair<const Imf_3_4::Name, Imf_3_4::Slice>, std::_Select1st<std::pair<const Imf_3_4::Name, Imf_3_4::Slice>>, std::less<Imf_3_4::Name>>::_Rb_tree_impl" }
%"struct.std::_Rb_tree<Imf_3_4::Name, std::pair<const Imf_3_4::Name, Imf_3_4::Slice>, std::_Select1st<std::pair<const Imf_3_4::Name, Imf_3_4::Slice>>, std::less<Imf_3_4::Name>>::_Rb_tree_impl" = type { [8 x i8], %"struct.std::_Rb_tree_header" }
%"class.Imf_3_4::TileOffsets" = type { i32, i32, i32, %"class.std::vector" }
%"class.std::vector" = type { %"struct.std::_Vector_base" }
%"struct.std::_Vector_base" = type { %"struct.std::_Vector_base<std::vector<std::vector<unsigned long>>, std::allocator<std::vector<std::vector<unsigned long>>>>::_Vector_impl" }
%"struct.std::_Vector_base<std::vector<std::vector<unsigned long>>, std::allocator<std::vector<std::vector<unsigned long>>>>::_Vector_impl" = type { %"struct.std::_Vector_base<std::vector<std::vector<unsigned long>>, std::allocator<std::vector<std::vector<unsigned long>>>>::_Vector_impl_data" }
%"struct.std::_Vector_base<std::vector<std::vector<unsigned long>>, std::allocator<std::vector<std::vector<unsigned long>>>>::_Vector_impl_data" = type { ptr, ptr, ptr }
%"class.std::vector.11" = type { %"struct.std::_Vector_base.12" }
%"struct.std::_Vector_base.12" = type { %"struct.std::_Vector_base<Imf_3_4::(anonymous namespace)::TOutSliceInfo, std::allocator<Imf_3_4::(anonymous namespace)::TOutSliceInfo>>::_Vector_impl" }
%"struct.std::_Vector_base<Imf_3_4::(anonymous namespace)::TOutSliceInfo, std::allocator<Imf_3_4::(anonymous namespace)::TOutSliceInfo>>::_Vector_impl" = type { %"struct.std::_Vector_base<Imf_3_4::(anonymous namespace)::TOutSliceInfo, std::allocator<Imf_3_4::(anonymous namespace)::TOutSliceInfo>>::_Vector_impl_data" }
%"struct.std::_Vector_base<Imf_3_4::(anonymous namespace)::TOutSliceInfo, std::allocator<Imf_3_4::(anonymous namespace)::TOutSliceInfo>>::_Vector_impl_data" = type { ptr, ptr, ptr }
%"class.std::vector.16" = type { %"struct.std::_Vector_base.17" }
%"struct.std::_Vector_base.17" = type { %"struct.std::_Vector_base<Imf_3_4::(anonymous namespace)::TileBuffer *, std::allocator<Imf_3_4::(anonymous namespace)::TileBuffer *>>::_Vector_impl" }
%"struct.std::_Vector_base<Imf_3_4::(anonymous namespace)::TileBuffer *, std::allocator<Imf_3_4::(anonymous namespace)::TileBuffer *>>::_Vector_impl" = type { %"struct.std::_Vector_base<Imf_3_4::(anonymous namespace)::TileBuffer *, std::allocator<Imf_3_4::(anonymous namespace)::TileBuffer *>>::_Vector_impl_data" }
%"struct.std::_Vector_base<Imf_3_4::(anonymous namespace)::TileBuffer *, std::allocator<Imf_3_4::(anonymous namespace)::TileBuffer *>>::_Vector_impl_data" = type { ptr, ptr, ptr }
%"class.std::map.21" = type { %"class.std::_Rb_tree.22" }
%"class.std::_Rb_tree.22" = type { %"struct.std::_Rb_tree<Imf_3_4::(anonymous namespace)::TileCoord, std::pair<const Imf_3_4::(anonymous namespace)::TileCoord, Imf_3_4::(anonymous namespace)::BufferedTile *>, std::_Select1st<std::pair<const Imf_3_4::(anonymous namespace)::TileCoord, Imf_3_4::(anonymous namespace)::BufferedTile *>>, std::less<Imf_3_4::(anonymous namespace)::TileCoord>>::_Rb_tree_impl" }
%"struct.std::_Rb_tree<Imf_3_4::(anonymous namespace)::TileCoord, std::pair<const Imf_3_4::(anonymous namespace)::TileCoord, Imf_3_4::(anonymous namespace)::BufferedTile *>, std::_Select1st<std::pair<const Imf_3_4::(anonymous namespace)::TileCoord, Imf_3_4::(anonymous namespace)::BufferedTile *>>, std::less<Imf_3_4::(anonymous namespace)::TileCoord>>::_Rb_tree_impl" = type { [8 x i8], %"struct.std::_Rb_tree_header" }
%"struct.Imf_3_4::(anonymous namespace)::TileCoord" = type { i32, i32, i32, i32 }
%"struct.Imf_3_4::OutputStreamMutex" = type { %"class.std::mutex", ptr, i64 }
%"class.std::mutex" = type { %"class.std::__mutex_base" }
%"class.std::__mutex_base" = type { %union.pthread_mutex_t }
%union.pthread_mutex_t = type { %struct.__pthread_mutex_s }
%struct.__pthread_mutex_s = type { i32, i32, i32, i32, i32, i16, i16, %struct.__pthread_internal_list }
%struct.__pthread_internal_list = type { ptr, ptr }

; Function Attrs: inlinehint mustprogress uwtable
define linkonce_odr hidden void @_ZN7Imf_3_48StreamIO10writeCharsERNS_7OStreamEPKci(ptr noundef nonnull align 8 dereferenceable(40) %0, ptr noundef %1, i32 noundef %2) #13 comdat align 2 {
  %4 = alloca ptr, align 8
  %5 = alloca ptr, align 8
  %6 = alloca i32, align 4
  store ptr %0, ptr %4, align 8, !tbaa !179
  store ptr %1, ptr %5, align 8, !tbaa !10
  store i32 %2, ptr %6, align 4, !tbaa !14
  %7 = load ptr, ptr %4, align 8, !tbaa !179
  %8 = load ptr, ptr %5, align 8, !tbaa !10
  %9 = load i32, ptr %6, align 4, !tbaa !14
  %10 = load ptr, ptr %7, align 8, !tbaa !126
  %11 = getelementptr inbounds ptr, ptr %10, i64 2
  %12 = load ptr, ptr %11, align 8
  call void %12(ptr noundef nonnull align 8 dereferenceable(40) %7, ptr noundef %8, i32 noundef %9)
  ret void
}

; Function Attrs: inlinehint mustprogress uwtable
define linkonce_odr hidden void @_ZN7Imf_3_43Xdr16writeSignedCharsINS_8StreamIOENS_7OStreamEEEvRT0_PKai(ptr noundef nonnull align 8 dereferenceable(40) %0, ptr noundef %1, i32 noundef %2) #13 comdat {
  %4 = alloca ptr, align 8
  %5 = alloca ptr, align 8
  %6 = alloca i32, align 4
  store ptr %0, ptr %4, align 8, !tbaa !179
  store ptr %1, ptr %5, align 8, !tbaa !10
  store i32 %2, ptr %6, align 4, !tbaa !14
  %7 = load ptr, ptr %4, align 8, !tbaa !179
  %8 = load ptr, ptr %5, align 8, !tbaa !10
  %9 = load i32, ptr %6, align 4, !tbaa !14
  call void @_ZN7Imf_3_48StreamIO10writeCharsERNS_7OStreamEPKci(ptr noundef nonnull align 8 dereferenceable(40) %7, ptr noundef %8, i32 noundef %9)
  ret void
}

; Function Attrs: inlinehint mustprogress nounwind uwtable
define linkonce_odr hidden noundef i32 @_ZN7Imf_3_43Xdr4sizeIiEEiv() #7 comdat {
  ret i32 4
}

; Function Attrs: mustprogress uwtable
define linkonce_odr hidden void @_ZN7Imf_3_43Xdr5writeINS_8StreamIOENS_7OStreamEEEvRT0_i(ptr noundef nonnull align 8 dereferenceable(40) %0, i32 noundef %1) #6 comdat {
  %3 = alloca ptr, align 8
  %4 = alloca i32, align 4
  %5 = alloca [4 x i8], align 1
  store ptr %0, ptr %3, align 8, !tbaa !179
  store i32 %1, ptr %4, align 4, !tbaa !14
  call void @llvm.lifetime.start.p0(i64 4, ptr %5) #3
  %6 = load i32, ptr %4, align 4, !tbaa !14
  %7 = trunc i32 %6 to i8
  %8 = getelementptr inbounds [4 x i8], ptr %5, i64 0, i64 0
  store i8 %7, ptr %8, align 1, !tbaa !292
  %9 = load i32, ptr %4, align 4, !tbaa !14
  %10 = ashr i32 %9, 8
  %11 = trunc i32 %10 to i8
  %12 = getelementptr inbounds [4 x i8], ptr %5, i64 0, i64 1
  store i8 %11, ptr %12, align 1, !tbaa !292
  %13 = load i32, ptr %4, align 4, !tbaa !14
  %14 = ashr i32 %13, 16
  %15 = trunc i32 %14 to i8
  %16 = getelementptr inbounds [4 x i8], ptr %5, i64 0, i64 2
  store i8 %15, ptr %16, align 1, !tbaa !292
  %17 = load i32, ptr %4, align 4, !tbaa !14
  %18 = ashr i32 %17, 24
  %19 = trunc i32 %18 to i8
  %20 = getelementptr inbounds [4 x i8], ptr %5, i64 0, i64 3
  store i8 %19, ptr %20, align 1, !tbaa !292
  %21 = load ptr, ptr %3, align 8, !tbaa !179
  %22 = getelementptr inbounds [4 x i8], ptr %5, i64 0, i64 0
  call void @_ZN7Imf_3_43Xdr16writeSignedCharsINS_8StreamIOENS_7OStreamEEEvRT0_PKai(ptr noundef nonnull align 8 dereferenceable(40) %21, ptr noundef %22, i32 noundef 4)
  call void @llvm.lifetime.end.p0(i64 4, ptr %5) #3
  ret void
}

; Function Attrs: mustprogress uwtable
define internal void @_ZN7Imf_3_412_GLOBAL__N_113writeTileDataEPNS_17OutputStreamMutexEPNS_15TiledOutputFile4DataEiiiiPKci(ptr noundef %0, ptr noundef %1, i32 noundef %2, i32 noundef %3, i32 noundef %4, i32 noundef %5, ptr noundef %6, i32 noundef %7) #6 {
  %9 = alloca ptr, align 8
  %10 = alloca ptr, align 8
  %11 = alloca i32, align 4
  %12 = alloca i32, align 4
  %13 = alloca i32, align 4
  %14 = alloca i32, align 4
  %15 = alloca ptr, align 8
  %16 = alloca i32, align 4
  %17 = alloca i64, align 8
  store ptr %0, ptr %9, align 8, !tbaa !147
  store ptr %1, ptr %10, align 8, !tbaa !12
  store i32 %2, ptr %11, align 4, !tbaa !14
  store i32 %3, ptr %12, align 4, !tbaa !14
  store i32 %4, ptr %13, align 4, !tbaa !14
  store i32 %5, ptr %14, align 4, !tbaa !14
  store ptr %6, ptr %15, align 8, !tbaa !10
  store i32 %7, ptr %16, align 4, !tbaa !14
  call void @llvm.lifetime.start.p0(i64 8, ptr %17) #3
  %18 = load ptr, ptr %9, align 8, !tbaa !147
  %19 = getelementptr inbounds nuw %"struct.Imf_3_4::OutputStreamMutex", ptr %18, i32 0, i32 2
  %20 = load i64, ptr %19, align 8, !tbaa !143
  store i64 %20, ptr %17, align 8, !tbaa !96
  %21 = load ptr, ptr %9, align 8, !tbaa !147
  %22 = getelementptr inbounds nuw %"struct.Imf_3_4::OutputStreamMutex", ptr %21, i32 0, i32 2
  store i64 0, ptr %22, align 8, !tbaa !143
  %23 = load i64, ptr %17, align 8, !tbaa !96
  %24 = icmp eq i64 %23, 0
  br i1 %24, label %25, label %33

25:                                               ; preds = %8
  %26 = load ptr, ptr %9, align 8, !tbaa !147
  %27 = getelementptr inbounds nuw %"struct.Imf_3_4::OutputStreamMutex", ptr %26, i32 0, i32 1
  %28 = load ptr, ptr %27, align 8, !tbaa !138
  %29 = load ptr, ptr %28, align 8, !tbaa !126
  %30 = getelementptr inbounds ptr, ptr %29, i64 3
  %31 = load ptr, ptr %30, align 8
  %32 = call noundef i64 %31(ptr noundef nonnull align 8 dereferenceable(40) %28)
  store i64 %32, ptr %17, align 8, !tbaa !96
  br label %33

33:                                               ; preds = %25, %8
  %34 = load i64, ptr %17, align 8, !tbaa !96
  %35 = load ptr, ptr %10, align 8, !tbaa !12
  %36 = getelementptr inbounds nuw %"struct.Imf_3_4::TiledOutputFile::Data", ptr %35, i32 0, i32 17
  %37 = load i32, ptr %11, align 4, !tbaa !14
  %38 = load i32, ptr %12, align 4, !tbaa !14
  %39 = load i32, ptr %13, align 4, !tbaa !14
  %40 = load i32, ptr %14, align 4, !tbaa !14
  %41 = call noundef nonnull align 8 dereferenceable(8) ptr @_ZN7Imf_3_411TileOffsetsclEiiii(ptr noundef nonnull align 8 dereferenceable(40) %36, i32 noundef %37, i32 noundef %38, i32 noundef %39, i32 noundef %40)
  store i64 %34, ptr %41, align 8, !tbaa !96
  %42 = load ptr, ptr %10, align 8, !tbaa !12
  %43 = getelementptr inbounds nuw %"struct.Imf_3_4::TiledOutputFile::Data", ptr %42, i32 0, i32 2
  %44 = load i8, ptr %43, align 4, !tbaa !16, !range !186, !noundef !187
  %45 = trunc i8 %44 to i1
  br i1 %45, label %46, label %53

46:                                               ; preds = %33
  %47 = load ptr, ptr %9, align 8, !tbaa !147
  %48 = getelementptr inbounds nuw %"struct.Imf_3_4::OutputStreamMutex", ptr %47, i32 0, i32 1
  %49 = load ptr, ptr %48, align 8, !tbaa !138
  %50 = load ptr, ptr %10, align 8, !tbaa !12
  %51 = getelementptr inbounds nuw %"struct.Imf_3_4::TiledOutputFile::Data", ptr %50, i32 0, i32 27
  %52 = load i32, ptr %51, align 8, !tbaa !66
  call void @_ZN7Imf_3_43Xdr5writeINS_8StreamIOENS_7OStreamEEEvRT0_i(ptr noundef nonnull align 8 dereferenceable(40) %49, i32 noundef %52)
  br label %53

53:                                               ; preds = %46, %33
  %54 = load ptr, ptr %9, align 8, !tbaa !147
  %55 = getelementptr inbounds nuw %"struct.Imf_3_4::OutputStreamMutex", ptr %54, i32 0, i32 1
  %56 = load ptr, ptr %55, align 8, !tbaa !138
  %57 = load i32, ptr %11, align 4, !tbaa !14
  call void @_ZN7Imf_3_43Xdr5writeINS_8StreamIOENS_7OStreamEEEvRT0_i(ptr noundef nonnull align 8 dereferenceable(40) %56, i32 noundef %57)
  %58 = load ptr, ptr %9, align 8, !tbaa !147
  %59 = getelementptr inbounds nuw %"struct.Imf_3_4::OutputStreamMutex", ptr %58, i32 0, i32 1
  %60 = load ptr, ptr %59, align 8, !tbaa !138
  %61 = load i32, ptr %12, align 4, !tbaa !14
  call void @_ZN7Imf_3_43Xdr5writeINS_8StreamIOENS_7OStreamEEEvRT0_i(ptr noundef nonnull align 8 dereferenceable(40) %60, i32 noundef %61)
  %62 = load ptr, ptr %9, align 8, !tbaa !147
  %63 = getelementptr inbounds nuw %"struct.Imf_3_4::OutputStreamMutex", ptr %62, i32 0, i32 1
  %64 = load ptr, ptr %63, align 8, !tbaa !138
  %65 = load i32, ptr %13, align 4, !tbaa !14
  call void @_ZN7Imf_3_43Xdr5writeINS_8StreamIOENS_7OStreamEEEvRT0_i(ptr noundef nonnull align 8 dereferenceable(40) %64, i32 noundef %65)
  %66 = load ptr, ptr %9, align 8, !tbaa !147
  %67 = getelementptr inbounds nuw %"struct.Imf_3_4::OutputStreamMutex", ptr %66, i32 0, i32 1
  %68 = load ptr, ptr %67, align 8, !tbaa !138
  %69 = load i32, ptr %14, align 4, !tbaa !14
  call void @_ZN7Imf_3_43Xdr5writeINS_8StreamIOENS_7OStreamEEEvRT0_i(ptr noundef nonnull align 8 dereferenceable(40) %68, i32 noundef %69)
  %70 = load ptr, ptr %9, align 8, !tbaa !147
  %71 = getelementptr inbounds nuw %"struct.Imf_3_4::OutputStreamMutex", ptr %70, i32 0, i32 1
  %72 = load ptr, ptr %71, align 8, !tbaa !138
  %73 = load i32, ptr %16, align 4, !tbaa !14
  call void @_ZN7Imf_3_43Xdr5writeINS_8StreamIOENS_7OStreamEEEvRT0_i(ptr noundef nonnull align 8 dereferenceable(40) %72, i32 noundef %73)
  %74 = load ptr, ptr %9, align 8, !tbaa !147
  %75 = getelementptr inbounds nuw %"struct.Imf_3_4::OutputStreamMutex", ptr %74, i32 0, i32 1
  %76 = load ptr, ptr %75, align 8, !tbaa !138
  %77 = load ptr, ptr %15, align 8, !tbaa !10
  %78 = load i32, ptr %16, align 4, !tbaa !14
  %79 = load ptr, ptr %76, align 8, !tbaa !126
  %80 = getelementptr inbounds ptr, ptr %79, i64 2
  %81 = load ptr, ptr %80, align 8
  call void %81(ptr noundef nonnull align 8 dereferenceable(40) %76, ptr noundef %77, i32 noundef %78)
  %82 = load i64, ptr %17, align 8, !tbaa !96
  %83 = call noundef i32 @_ZN7Imf_3_43Xdr4sizeIiEEiv()
  %84 = mul nsw i32 5, %83
  %85 = sext i32 %84 to i64
  %86 = add i64 %82, %85
  %87 = load i32, ptr %16, align 4, !tbaa !14
  %88 = sext i32 %87 to i64
  %89 = add i64 %86, %88
  %90 = load ptr, ptr %9, align 8, !tbaa !147
  %91 = getelementptr inbounds nuw %"struct.Imf_3_4::OutputStreamMutex", ptr %90, i32 0, i32 2
  store i64 %89, ptr %91, align 8, !tbaa !143
  %92 = load ptr, ptr %10, align 8, !tbaa !12
  %93 = getelementptr inbounds nuw %"struct.Imf_3_4::TiledOutputFile::Data", ptr %92, i32 0, i32 2
  %94 = load i8, ptr %93, align 4, !tbaa !16, !range !186, !noundef !187
  %95 = trunc i8 %94 to i1
  br i1 %95, label %96, label %103

96:                                               ; preds = %53
  %97 = call noundef i32 @_ZN7Imf_3_43Xdr4sizeIiEEiv()
  %98 = sext i32 %97 to i64
  %99 = load ptr, ptr %9, align 8, !tbaa !147
  %100 = getelementptr inbounds nuw %"struct.Imf_3_4::OutputStreamMutex", ptr %99, i32 0, i32 2
  %101 = load i64, ptr %100, align 8, !tbaa !143
  %102 = add i64 %101, %98
  store i64 %102, ptr %100, align 8, !tbaa !143
  br label %103

103:                                              ; preds = %96, %53
  call void @llvm.lifetime.end.p0(i64 8, ptr %17) #3
  ret void
}